target datalayout = "e-m:e-p270:32:32-p271:32:32-p272:64:64-i64:64-i128:128-f80:128-n8:16:32:64-S128"
target triple = "x86_64-pc-linux-gnu"

%struct.H5D_chk_idx_info_t = type { ptr, ptr, ptr, ptr }
%struct.H5O_storage_chunk_t = type { i32, i64, ptr, %union.anon }
%union.anon = type { %struct.H5O_storage_chunk_btree_t }
%struct.H5O_storage_chunk_btree_t = type { i64, ptr }
%struct.H5D_chunk_common_ud_t = type { ptr, ptr, ptr }

@H5D_init_g = external global i8, align 1
@H5_libterm_g = external global i8, align 1
@.str = private unnamed_addr constant [102 x i8] c"generated/home/dtcxzyw/WorkSpace/Projects/compilers/llvm-opt-benchmark/bench/hdf5/hdf5/src/H5Dbtree.c\00", align 1
@H5E_CANTINIT_g = external global i64, align 8
@.str.2 = private unnamed_addr constant [44 x i8] c"can't create wrapper for shared B-tree info\00", align 1
@H5E_CANTFREE_g = external global i64, align 8
@H5E_DATASET_g = external global i64, align 8
@H5E_CANTDELETE_g = external global i64, align 8
@__func__.H5D__btree_idx_delete = private unnamed_addr constant [22 x i8] c"H5D__btree_idx_delete\00", align 1
@.str.11 = private unnamed_addr constant [30 x i8] c"unable to delete chunk B-tree\00", align 1
@.str.12 = private unnamed_addr constant [21 x i8] c"ref-counted page nil\00", align 1
@.str.13 = private unnamed_addr constant [37 x i8] c"unable to decrement ref-counted page\00", align 1

; Function Attrs: nounwind uwtable
define internal i32 @H5D__btree_idx_delete(ptr noundef %0) #0 {
  %2 = alloca i32, align 4
  %3 = alloca ptr, align 8
  %4 = alloca i32, align 4
  %5 = alloca i8, align 1
  %6 = alloca %struct.H5O_storage_chunk_t, align 8
  %7 = alloca %struct.H5D_chunk_common_ud_t, align 8
  %8 = alloca i32, align 4
  store ptr %0, ptr %3, align 8, !tbaa !3
  call void @llvm.lifetime.start.p0(i64 4, ptr %4) #8
  store i32 0, ptr %4, align 4, !tbaa !12
  call void @llvm.lifetime.start.p0(i64 1, ptr %5) #8
  store i8 0, ptr %5, align 1, !tbaa !14
  %9 = load i8, ptr @H5D_init_g, align 1, !tbaa !14, !range !16, !noundef !17
  %10 = trunc i8 %9 to i1
  br i1 %10, label %15, label %11

11:                                               ; preds = %1
  %12 = load i8, ptr @H5_libterm_g, align 1, !tbaa !14, !range !16, !noundef !17
  %13 = trunc i8 %12 to i1
  %14 = xor i1 %13, true
  br label %15

15:                                               ; preds = %11, %1
  %16 = phi i1 [ true, %1 ], [ %14, %11 ]
  %17 = xor i1 %16, true
  %18 = xor i1 %17, true
  %19 = zext i1 %18 to i32
  %20 = sext i32 %19 to i64
  %21 = call i64 @llvm.expect.i64(i64 %20, i64 1)
  %22 = icmp ne i64 %21, 0
  br i1 %22, label %23, label %148

23:                                               ; preds = %15
  %24 = load ptr, ptr %3, align 8, !tbaa !3
  %25 = getelementptr inbounds nuw %struct.H5D_chk_idx_info_t, ptr %24, i32 0, i32 3
  %26 = load ptr, ptr %25, align 8, !tbaa !18
  %27 = getelementptr inbounds nuw %struct.H5O_storage_chunk_t, ptr %26, i32 0, i32 1
  %28 = load i64, ptr %27, align 8, !tbaa !34
  %29 = icmp ne i64 %28, -1
  br i1 %29, label %30, label %146

30:                                               ; preds = %23
  call void @llvm.lifetime.start.p0(i64 40, ptr %6) #8
  call void @llvm.lifetime.start.p0(i64 24, ptr %7) #8
  %31 = load ptr, ptr %3, align 8, !tbaa !3
  %32 = getelementptr inbounds nuw %struct.H5D_chk_idx_info_t, ptr %31, i32 0, i32 3
  %33 = load ptr, ptr %32, align 8, !tbaa !18
  call void @llvm.memcpy.p0.p0.i64(ptr align 8 %6, ptr align 8 %33, i64 40, i1 false), !tbaa.struct !49
  %34 = load ptr, ptr %3, align 8, !tbaa !3
  %35 = getelementptr inbounds nuw %struct.H5D_chk_idx_info_t, ptr %34, i32 0, i32 0
  %36 = load ptr, ptr %35, align 8, !tbaa !25
  %37 = load ptr, ptr %3, align 8, !tbaa !3
  %38 = getelementptr inbounds nuw %struct.H5D_chk_idx_info_t, ptr %37, i32 0, i32 2
  %39 = load ptr, ptr %38, align 8, !tbaa !26
  %40 = call i32 @H5D__btree_shared_create(ptr noundef %36, ptr noundef %6, ptr noundef %39)
  %41 = icmp slt i32 %40, 0
  br i1 %41, label %42, label %61

42:                                               ; preds = %30
  br label %43

43:                                               ; preds = %42
  br label %44

44:                                               ; preds = %43
  br label %45

45:                                               ; preds = %44
  %46 = load i64, ptr @H5E_DATASET_g, align 8, !tbaa !10
  %47 = load i64, ptr @H5E_CANTINIT_g, align 8, !tbaa !10
  %48 = call i32 (ptr, ptr, i32, i64, i64, ptr, ...) @H5E_printf_stack(ptr noundef @.str, ptr noundef @__func__.H5D__btree_idx_delete, i32 noundef 1207, i64 noundef %46, i64 noundef %47, ptr noundef @.str.2)
  br label %49

49:                                               ; preds = %45
  br label %50

50:                                               ; preds = %49
  store i8 1, ptr %5, align 1, !tbaa !14
  %51 = load i8, ptr %5, align 1, !tbaa !14, !range !16, !noundef !17
  %52 = trunc i8 %51 to i1
  %53 = zext i1 %52 to i8
  store i8 %53, ptr %5, align 1, !tbaa !14
  br label %54

54:                                               ; preds = %50
  br label %55

55:                                               ; preds = %54
  br label %56

56:                                               ; preds = %55
  store i32 -1, ptr %4, align 4, !tbaa !12
  store i32 10, ptr %8, align 4
  br label %143

57:                                               ; No predecessors!
  br label %58

58:                                               ; preds = %57
  br label %59

59:                                               ; preds = %58
  br label %60

60:                                               ; preds = %59
  br label %61

61:                                               ; preds = %60, %30
  call void @llvm.memset.p0.i64(ptr align 8 %7, i8 0, i64 24, i1 false)
  %62 = load ptr, ptr %3, align 8, !tbaa !3
  %63 = getelementptr inbounds nuw %struct.H5D_chk_idx_info_t, ptr %62, i32 0, i32 2
  %64 = load ptr, ptr %63, align 8, !tbaa !26
  %65 = getelementptr inbounds nuw %struct.H5D_chunk_common_ud_t, ptr %7, i32 0, i32 0
  store ptr %64, ptr %65, align 8, !tbaa !27
  %66 = getelementptr inbounds nuw %struct.H5D_chunk_common_ud_t, ptr %7, i32 0, i32 1
  store ptr %6, ptr %66, align 8, !tbaa !30
  %67 = load ptr, ptr %3, align 8, !tbaa !3
  %68 = getelementptr inbounds nuw %struct.H5D_chk_idx_info_t, ptr %67, i32 0, i32 0
  %69 = load ptr, ptr %68, align 8, !tbaa !25
  %70 = getelementptr inbounds nuw %struct.H5O_storage_chunk_t, ptr %6, i32 0, i32 1
  %71 = load i64, ptr %70, align 8, !tbaa !34
  %72 = call i32 @H5B_delete(ptr noundef %69, ptr noundef @H5B_BTREE, i64 noundef %71, ptr noundef %7)
  %73 = icmp slt i32 %72, 0
  br i1 %73, label %74, label %93

74:                                               ; preds = %61
  br label %75

75:                                               ; preds = %74
  br label %76

76:                                               ; preds = %75
  br label %77

77:                                               ; preds = %76
  %78 = load i64, ptr @H5E_DATASET_g, align 8, !tbaa !10
  %79 = load i64, ptr @H5E_CANTDELETE_g, align 8, !tbaa !10
  %80 = call i32 (ptr, ptr, i32, i64, i64, ptr, ...) @H5E_printf_stack(ptr noundef @.str, ptr noundef @__func__.H5D__btree_idx_delete, i32 noundef 1216, i64 noundef %78, i64 noundef %79, ptr noundef @.str.11)
  br label %81

81:                                               ; preds = %77
  br label %82

82:                                               ; preds = %81
  store i8 1, ptr %5, align 1, !tbaa !14
  %83 = load i8, ptr %5, align 1, !tbaa !14, !range !16, !noundef !17
  %84 = trunc i8 %83 to i1
  %85 = zext i1 %84 to i8
  store i8 %85, ptr %5, align 1, !tbaa !14
  br label %86

86:                                               ; preds = %82
  br label %87

87:                                               ; preds = %86
  br label %88

88:                                               ; preds = %87
  store i32 -1, ptr %4, align 4, !tbaa !12
  store i32 10, ptr %8, align 4
  br label %143

89:                                               ; No predecessors!
  br label %90

90:                                               ; preds = %89
  br label %91

91:                                               ; preds = %90
  br label %92

92:                                               ; preds = %91
  br label %93

93:                                               ; preds = %92, %61
  %94 = getelementptr inbounds nuw %struct.H5O_storage_chunk_t, ptr %6, i32 0, i32 3
  %95 = getelementptr inbounds nuw %struct.H5O_storage_chunk_btree_t, ptr %94, i32 0, i32 1
  %96 = load ptr, ptr %95, align 8, !tbaa !24
  %97 = icmp eq ptr null, %96
  br i1 %97, label %98, label %117

98:                                               ; preds = %93
  br label %99

99:                                               ; preds = %98
  br label %100

100:                                              ; preds = %99
  br label %101

101:                                              ; preds = %100
  %102 = load i64, ptr @H5E_DATASET_g, align 8, !tbaa !10
  %103 = load i64, ptr @H5E_CANTFREE_g, align 8, !tbaa !10
  %104 = call i32 (ptr, ptr, i32, i64, i64, ptr, ...) @H5E_printf_stack(ptr noundef @.str, ptr noundef @__func__.H5D__btree_idx_delete, i32 noundef 1220, i64 noundef %102, i64 noundef %103, ptr noundef @.str.12)
  br label %105

105:                                              ; preds = %101
  br label %106

106:                                              ; preds = %105
  store i8 1, ptr %5, align 1, !tbaa !14
  %107 = load i8, ptr %5, align 1, !tbaa !14, !range !16, !noundef !17
  %108 = trunc i8 %107 to i1
  %109 = zext i1 %108 to i8
  store i8 %109, ptr %5, align 1, !tbaa !14
  br label %110

110:                                              ; preds = %106
  br label %111

111:                                              ; preds = %110
  br label %112

112:                                              ; preds = %111
  store i32 -1, ptr %4, align 4, !tbaa !12
  store i32 10, ptr %8, align 4
  br label %143

113:                                              ; No predecessors!
  br label %114

114:                                              ; preds = %113
  br label %115

115:                                              ; preds = %114
  br label %116

116:                                              ; preds = %115
  br label %117

117:                                              ; preds = %116, %93
  %118 = getelementptr inbounds nuw %struct.H5O_storage_chunk_t, ptr %6, i32 0, i32 3
  %119 = getelementptr inbounds nuw %struct.H5O_storage_chunk_btree_t, ptr %118, i32 0, i32 1
  %120 = load ptr, ptr %119, align 8, !tbaa !24
  %121 = call i32 @H5UC_decr(ptr noundef %120)
  %122 = icmp slt i32 %121, 0
  br i1 %122, label %123, label %142

123:                                              ; preds = %117
  br label %124

124:                                              ; preds = %123
  br label %125

125:                                              ; preds = %124
  br label %126

126:                                              ; preds = %125
  %127 = load i64, ptr @H5E_DATASET_g, align 8, !tbaa !10
  %128 = load i64, ptr @H5E_CANTFREE_g, align 8, !tbaa !10
  %129 = call i32 (ptr, ptr, i32, i64, i64, ptr, ...) @H5E_printf_stack(ptr noundef @.str, ptr noundef @__func__.H5D__btree_idx_delete, i32 noundef 1222, i64 noundef %127, i64 noundef %128, ptr noundef @.str.13)
  br label %130

130:                                              ; preds = %126
  br label %131

131:                                              ; preds = %130
  store i8 1, ptr %5, align 1, !tbaa !14
  %132 = load i8, ptr %5, align 1, !tbaa !14, !range !16, !noundef !17
  %133 = trunc i8 %132 to i1
  %134 = zext i1 %133 to i8
  store i8 %134, ptr %5, align 1, !tbaa !14
  br label %135

135:                                              ; preds = %131
  br label %136

136:                                              ; preds = %135
  br label %137

137:                                              ; preds = %136
  store i32 -1, ptr %4, align 4, !tbaa !12
  store i32 10, ptr %8, align 4
  br label %143

138:                                              ; No predecessors!
  br label %139

139:                                              ; preds = %138
  br label %140

140:                                              ; preds = %139
  br label %141

141:                                              ; preds = %140
  br label %142

142:                                              ; preds = %141, %117
  store i32 0, ptr %8, align 4
  br label %143

143:                                              ; preds = %137, %112, %88, %56, %142
  call void @llvm.lifetime.end.p0(i64 24, ptr %7) #8
  call void @llvm.lifetime.end.p0(i64 40, ptr %6) #8
  %144 = load i32, ptr %8, align 4
  switch i32 %144, label %150 [
    i32 0, label %145
    i32 10, label %147
  ]

145:                                              ; preds = %143
  br label %146

146:                                              ; preds = %145, %23
  br label %147

147:                                              ; preds = %146, %143
  br label %148

148:                                              ; preds = %147, %15
  %149 = load i32, ptr %4, align 4, !tbaa !12
  store i32 %149, ptr %2, align 4
  store i32 1, ptr %8, align 4
  br label %150

150:                                              ; preds = %148, %143
  call void @llvm.lifetime.end.p0(i64 1, ptr %5) #8
  call void @llvm.lifetime.end.p0(i64 4, ptr %4) #8
  %151 = load i32, ptr %2, align 4
  ret i32 %151
}