; Function Attrs: nounwind uwtable
define internal range(i32 -1, 1) i32 @H5D__btree_idx_delete(ptr noundef readonly captures(none) %0) #0 {
  %2 = alloca %struct.H5O_storage_chunk_t, align 8
  %3 = alloca %struct.H5D_chunk_common_ud_t, align 8
  %4 = load i8, ptr @H5D_init_g, align 1, !tbaa !3, !range !7, !noundef !8
  %5 = trunc nuw i8 %4 to i1
  %6 = load i8, ptr @H5_libterm_g, align 1, !range !7
  %7 = trunc nuw i8 %6 to i1
  %8 = xor i1 %7, true
  %9 = select i1 %5, i1 true, i1 %8
  br i1 %9, label %10, label %54, !prof !9

10:                                               ; preds = %1
  %11 = getelementptr inbounds nuw i8, ptr %0, i64 24
  %12 = load ptr, ptr %11, align 8, !tbaa !10
  %13 = getelementptr inbounds nuw i8, ptr %12, i64 8
  %14 = load i64, ptr %13, align 8, !tbaa !26
  %.not = icmp eq i64 %14, -1
  br i1 %.not, label %54, label %15

15:                                               ; preds = %10
  call void @llvm.lifetime.start.p0(i64 40, ptr nonnull %2) #15
  call void @llvm.lifetime.start.p0(i64 24, ptr nonnull %3) #15
  call void @llvm.memcpy.p0.p0.i64(ptr noundef nonnull align 8 dereferenceable(40) %2, ptr noundef nonnull align 8 dereferenceable(40) %12, i64 40, i1 false), !tbaa.struct !35
  %16 = load ptr, ptr %0, align 8, !tbaa !18
  %17 = getelementptr inbounds nuw i8, ptr %0, i64 16
  %18 = load ptr, ptr %17, align 8, !tbaa !19
  %19 = call fastcc i32 @H5D__btree_shared_create(ptr noundef %16, ptr noundef nonnull %2, ptr noundef %18)
  %20 = icmp slt i32 %19, 0
  br i1 %20, label %21, label %25

21:                                               ; preds = %15
  %22 = load i64, ptr @H5E_DATASET_g, align 8, !tbaa !20
  %23 = load i64, ptr @H5E_CANTINIT_g, align 8, !tbaa !20
  %24 = tail call i32 (ptr, ptr, i32, i64, i64, ptr, ...) @H5E_printf_stack(ptr noundef nonnull @.str, ptr noundef nonnull @__func__.H5D__btree_idx_delete, i32 noundef 1207, i64 noundef %22, i64 noundef %23, ptr noundef nonnull @.str.2) #15
  br label %53

25:                                               ; preds = %15
  %26 = getelementptr inbounds nuw i8, ptr %3, i64 16
  store i64 0, ptr %26, align 8
  %27 = load ptr, ptr %17, align 8, !tbaa !19
  store ptr %27, ptr %3, align 8, !tbaa !22
  %28 = getelementptr inbounds nuw i8, ptr %3, i64 8
  store ptr %2, ptr %28, align 8, !tbaa !25
  %29 = load ptr, ptr %0, align 8, !tbaa !18
  %30 = getelementptr inbounds nuw i8, ptr %2, i64 8
  %31 = load i64, ptr %30, align 8, !tbaa !26
  %32 = call i32 @H5B_delete(ptr noundef %29, ptr noundef nonnull @H5B_BTREE, i64 noundef %31, ptr noundef nonnull %3) #15
  %33 = icmp slt i32 %32, 0
  br i1 %33, label %34, label %38

34:                                               ; preds = %25
  %35 = load i64, ptr @H5E_DATASET_g, align 8, !tbaa !20
  %36 = load i64, ptr @H5E_CANTDELETE_g, align 8, !tbaa !20
  %37 = call i32 (ptr, ptr, i32, i64, i64, ptr, ...) @H5E_printf_stack(ptr noundef nonnull @.str, ptr noundef nonnull @__func__.H5D__btree_idx_delete, i32 noundef 1216, i64 noundef %35, i64 noundef %36, ptr noundef nonnull @.str.11) #15
  br label %53

38:                                               ; preds = %25
  %39 = getelementptr inbounds nuw i8, ptr %2, i64 32
  %40 = load ptr, ptr %39, align 8, !tbaa !17
  %41 = icmp eq ptr %40, null
  br i1 %41, label %42, label %46

42:                                               ; preds = %38
  %43 = load i64, ptr @H5E_DATASET_g, align 8, !tbaa !20
  %44 = load i64, ptr @H5E_CANTFREE_g, align 8, !tbaa !20
  %45 = call i32 (ptr, ptr, i32, i64, i64, ptr, ...) @H5E_printf_stack(ptr noundef nonnull @.str, ptr noundef nonnull @__func__.H5D__btree_idx_delete, i32 noundef 1220, i64 noundef %43, i64 noundef %44, ptr noundef nonnull @.str.12) #15
  br label %53

46:                                               ; preds = %38
  %47 = call i32 @H5UC_decr(ptr noundef nonnull %40) #15
  %48 = icmp slt i32 %47, 0
  br i1 %48, label %49, label %53

49:                                               ; preds = %46
  %50 = load i64, ptr @H5E_DATASET_g, align 8, !tbaa !20
  %51 = load i64, ptr @H5E_CANTFREE_g, align 8, !tbaa !20
  %52 = call i32 (ptr, ptr, i32, i64, i64, ptr, ...) @H5E_printf_stack(ptr noundef nonnull @.str, ptr noundef nonnull @__func__.H5D__btree_idx_delete, i32 noundef 1222, i64 noundef %50, i64 noundef %51, ptr noundef nonnull @.str.13) #15
  br label %53

53:                                               ; preds = %46, %49, %42, %34, %21
  %.1 = phi i32 [ -1, %21 ], [ -1, %34 ], [ -1, %42 ], [ -1, %49 ], [ 0, %46 ]
  call void @llvm.lifetime.end.p0(i64 24, ptr nonnull %3) #15
  call void @llvm.lifetime.end.p0(i64 40, ptr nonnull %2) #15
  br label %54

54:                                               ; preds = %53, %1, %10
  %.013 = phi i32 [ %.1, %53 ], [ 0, %10 ], [ 0, %1 ]
  ret i32 %.013
}